target datalayout = "e-m:e-p270:32:32-p271:32:32-p272:64:64-i64:64-i128:128-f80:128-n8:16:32:64-S128"
target triple = "x86_64-pc-linux-gnu"

%"class.icu_77::UVector32" = type { %"class.icu_77::UObject", i32, i32, i32, ptr }
%"class.icu_77::UObject" = type { ptr }
%"class.icu_77::RuleBasedBreakIterator" = type <{ %"class.icu_77::BreakIterator", %struct.UText, ptr, i32, i32, i32, [4 x i8], ptr, ptr, ptr, ptr, i32, [4 x i8], ptr, %"class.icu_77::UCharCharacterIterator", i8, [7 x i8], ptr, i8, [7 x i8] }>
%"class.icu_77::BreakIterator" = type { %"class.icu_77::UObject", ptr, ptr, ptr }
%struct.UText = type { i32, i32, i32, i32, i64, i32, i32, i64, i32, i32, ptr, ptr, ptr, ptr, ptr, ptr, ptr, ptr, i64, i32, i32, i64, i32, i32 }
%"class.icu_77::UCharCharacterIterator" = type { %"class.icu_77::CharacterIterator", ptr }
%"class.icu_77::CharacterIterator" = type { %"class.icu_77::ForwardCharacterIterator", i32, i32, i32, i32 }
%"class.icu_77::ForwardCharacterIterator" = type { %"class.icu_77::UObject" }
%"class.icu_77::RuleBasedBreakIterator::BreakCache" = type { ptr, ptr, i32, i32, i32, i32, [128 x i32], [128 x i16], %"class.icu_77::UVector32" }

; Function Attrs: mustprogress uwtable
define void @_ZN6icu_7722RuleBasedBreakIterator10BreakCache6nextOLEv(ptr noundef nonnull align 8 dereferenceable(832) %0) #0 align 2 {
  %2 = alloca ptr, align 8
  store ptr %0, ptr %2, align 8, !tbaa !81
  %3 = load ptr, ptr %2, align 8
  %4 = call noundef signext i8 @_ZN6icu_7722RuleBasedBreakIterator10BreakCache17populateFollowingEv(ptr noundef nonnull align 8 dereferenceable(832) %3)
  %5 = icmp ne i8 %4, 0
  %6 = xor i1 %5, true
  %7 = getelementptr inbounds nuw %"class.icu_77::RuleBasedBreakIterator::BreakCache", ptr %3, i32 0, i32 1
  %8 = load ptr, ptr %7, align 8, !tbaa !82
  %9 = getelementptr inbounds nuw %"class.icu_77::RuleBasedBreakIterator", ptr %8, i32 0, i32 15
  %10 = zext i1 %6 to i8
  store i8 %10, ptr %9, align 8, !tbaa !90
  %11 = getelementptr inbounds nuw %"class.icu_77::RuleBasedBreakIterator::BreakCache", ptr %3, i32 0, i32 4
  %12 = load i32, ptr %11, align 8, !tbaa !86
  %13 = getelementptr inbounds nuw %"class.icu_77::RuleBasedBreakIterator::BreakCache", ptr %3, i32 0, i32 1
  %14 = load ptr, ptr %13, align 8, !tbaa !82
  %15 = getelementptr inbounds nuw %"class.icu_77::RuleBasedBreakIterator", ptr %14, i32 0, i32 4
  store i32 %12, ptr %15, align 4, !tbaa !88
  %16 = getelementptr inbounds nuw %"class.icu_77::RuleBasedBreakIterator::BreakCache", ptr %3, i32 0, i32 7
  %17 = getelementptr inbounds nuw %"class.icu_77::RuleBasedBreakIterator::BreakCache", ptr %3, i32 0, i32 5
  %18 = load i32, ptr %17, align 4, !tbaa !87
  %19 = sext i32 %18 to i64
  %20 = getelementptr inbounds [128 x i16], ptr %16, i64 0, i64 %19
  %21 = load i16, ptr %20, align 2, !tbaa !63
  %22 = zext i16 %21 to i32
  %23 = getelementptr inbounds nuw %"class.icu_77::RuleBasedBreakIterator::BreakCache", ptr %3, i32 0, i32 1
  %24 = load ptr, ptr %23, align 8, !tbaa !82
  %25 = getelementptr inbounds nuw %"class.icu_77::RuleBasedBreakIterator", ptr %24, i32 0, i32 5
  store i32 %22, ptr %25, align 8, !tbaa !89
  ret void
}