; Function Attrs: mustprogress uwtable
define void @_ZN6icu_7722RuleBasedBreakIterator10BreakCache6nextOLEv(ptr noundef nonnull align 8 captures(none) dereferenceable(832) %0) local_unnamed_addr #0 align 2 {
  %2 = tail call noundef signext i8 @_ZN6icu_7722RuleBasedBreakIterator10BreakCache17populateFollowingEv(ptr noundef nonnull align 8 dereferenceable(832) %0)
  %3 = getelementptr inbounds nuw i8, ptr %0, i64 8
  %4 = load ptr, ptr %3, align 8, !tbaa !69
  %5 = getelementptr inbounds nuw i8, ptr %4, i64 280
  %6 = xor i8 %2, 1
  store i8 %6, ptr %5, align 8, !tbaa !79
  %7 = getelementptr inbounds nuw i8, ptr %0, i64 24
  %8 = load i32, ptr %7, align 8, !tbaa !75
  %9 = getelementptr inbounds nuw i8, ptr %4, i64 188
  store i32 %8, ptr %9, align 4, !tbaa !77
  %10 = getelementptr inbounds nuw i8, ptr %0, i64 544
  %11 = getelementptr inbounds nuw i8, ptr %0, i64 28
  %12 = load i32, ptr %11, align 4, !tbaa !76
  %13 = sext i32 %12 to i64
  %14 = getelementptr inbounds [128 x i16], ptr %10, i64 0, i64 %13
  %15 = load i16, ptr %14, align 2, !tbaa !71
  %16 = zext i16 %15 to i32
  %17 = getelementptr inbounds nuw i8, ptr %4, i64 192
  store i32 %16, ptr %17, align 8, !tbaa !78
  ret void
}